; Function Attrs: mustprogress uwtable
define void @_ZN2pb12JavaFeatures9MergeImplERN6google8protobuf11MessageLiteERKS3_(ptr noundef nonnull align 8 dereferenceable(16) %to_msg, ptr nocapture noundef nonnull readonly align 8 dereferenceable(16) %from_msg) #3 align 2 {
entry:
  %0 = getelementptr inbounds i8, ptr %from_msg, i64 16
  %1 = load i32, ptr %0, align 8
  %and = and i32 %1, 3
  %tobool.not = icmp eq i32 %and, 0
  br i1 %tobool.not, label %if.end12, label %if.then

if.then:                                          ; preds = %entry
  %and2 = and i32 %1, 1
  %tobool3.not = icmp eq i32 %and2, 0
  br i1 %tobool3.not, label %if.end, label %if.then4

if.then4:                                         ; preds = %if.then
  %legacy_closed_enum_ = getelementptr inbounds i8, ptr %from_msg, i64 24
  %2 = load i8, ptr %legacy_closed_enum_, align 8
  %3 = and i8 %2, 1
  %legacy_closed_enum_6 = getelementptr inbounds i8, ptr %to_msg, i64 24
  store i8 %3, ptr %legacy_closed_enum_6, align 8
  br label %if.end

if.end:                                           ; preds = %if.then4, %if.then
  %and7 = and i32 %1, 2
  %tobool8.not = icmp eq i32 %and7, 0
  br i1 %tobool8.not, label %if.end12, label %if.then9

if.then9:                                         ; preds = %if.end
  %utf8_validation_ = getelementptr inbounds i8, ptr %from_msg, i64 28
  %4 = load i32, ptr %utf8_validation_, align 4
  %utf8_validation_10 = getelementptr inbounds i8, ptr %to_msg, i64 28
  store i32 %4, ptr %utf8_validation_10, align 4
  br label %if.end12

if.end12:                                         ; preds = %if.end, %if.then9, %entry
  %5 = getelementptr inbounds i8, ptr %to_msg, i64 16
  %6 = load i32, ptr %5, align 8
  %or = or i32 %6, %1
  store i32 %or, ptr %5, align 8
  %_internal_metadata_15 = getelementptr inbounds i8, ptr %from_msg, i64 8
  %7 = load i64, ptr %_internal_metadata_15, align 8
  %and.i27 = and i64 %7, 1
  %tobool.i28.not = icmp eq i64 %and.i27, 0
  br i1 %tobool.i28.not, label %_ZN6google8protobuf8internal16InternalMetadata9MergeFromINS0_15UnknownFieldSetEEEvRKS2_.exit, label %if.then.i.i

if.then.i.i:                                      ; preds = %if.end12
  %_internal_metadata_ = getelementptr inbounds i8, ptr %to_msg, i64 8
  %and.i = and i64 %7, -2
  %8 = inttoptr i64 %and.i to ptr
  %unknown_fields.i.i = getelementptr inbounds i8, ptr %8, i64 8
  tail call void @_ZN6google8protobuf8internal16InternalMetadata11DoMergeFromINS0_15UnknownFieldSetEEEvRKT_(ptr noundef nonnull align 8 dereferenceable(8) %_internal_metadata_, ptr noundef nonnull align 8 dereferenceable(24) %unknown_fields.i.i)
  br label %_ZN6google8protobuf8internal16InternalMetadata9MergeFromINS0_15UnknownFieldSetEEEvRKS2_.exit

_ZN6google8protobuf8internal16InternalMetadata9MergeFromINS0_15UnknownFieldSetEEEvRKS2_.exit: ; preds = %if.then.i.i, %if.end12
  ret void
}